target datalayout = "e-m:e-p270:32:32-p271:32:32-p272:64:64-i64:64-i128:128-f80:128-n8:16:32:64-S128"
target triple = "x86_64-pc-linux-gnu"

%struct.HTTPContext = type { ptr, ptr, [8192 x i8], ptr, ptr, i32, i32, i64, i32, i64, i64, i64, ptr, ptr, %struct.HTTPAuthState, %struct.HTTPAuthState, ptr, ptr, ptr, ptr, ptr, ptr, ptr, i32, i32, i32, i32, i32, i32, ptr, i32, i32, i32, ptr, ptr, i32, i64, i64, ptr, ptr, ptr, i32, %struct.z_stream_s, ptr, ptr, i32, ptr, i32, i32, i32, i32, i32, ptr, i32, ptr, i32, i32, i32, i32, i32, i64, ptr, ptr, i64, i32, i32, i32, i32 }
%struct.HTTPAuthState = type { i32, [200 x i8], %struct.DigestParams, i32 }
%struct.DigestParams = type { [300 x i8], [10 x i8], [30 x i8], [300 x i8], [10 x i8], i32 }
%struct.z_stream_s = type { ptr, i32, i64, ptr, i32, i64, ptr, ptr, ptr, ptr, ptr, i32, i64, i64 }

@.str.108 = private unnamed_addr constant [9 x i8] c"no-cache\00", align 1
@.str.109 = private unnamed_addr constant [9 x i8] c"no-store\00", align 1
@.str.110 = private unnamed_addr constant [10 x i8] c"s-maxage=\00", align 1
@.str.111 = private unnamed_addr constant [9 x i8] c"max-age=\00", align 1

; Function Attrs: inlinehint nounwind willreturn memory(read) uwtable
define available_externally i32 @atoi(ptr noundef nonnull %0) #9 {
  %2 = alloca ptr, align 8
  store ptr %0, ptr %2, align 8, !tbaa !17
  %3 = load ptr, ptr %2, align 8, !tbaa !17
  %4 = call i64 @strtol(ptr noundef %3, ptr noundef null, i32 noundef 10) #11
  %5 = trunc i64 %4 to i32
  ret i32 %5
}

; Function Attrs: nounwind uwtable
define internal void @parse_cache_control(ptr noundef %0, ptr noundef %1) #0 {
  %3 = alloca ptr, align 8
  %4 = alloca ptr, align 8
  %5 = alloca ptr, align 8
  %6 = alloca i32, align 4
  %7 = alloca i32, align 4
  store ptr %0, ptr %3, align 8, !tbaa !21
  store ptr %1, ptr %4, align 8, !tbaa !17
  call void @llvm.lifetime.start.p0(i64 8, ptr %5) #11
  call void @llvm.lifetime.start.p0(i64 4, ptr %6) #11
  %8 = load ptr, ptr %3, align 8, !tbaa !21
  %9 = getelementptr inbounds nuw %struct.HTTPContext, ptr %8, i32 0, i32 60
  %10 = load i64, ptr %9, align 8, !tbaa !58
  %11 = icmp ne i64 %10, 0
  br i1 %11, label %12, label %13

12:                                               ; preds = %2
  store i32 1, ptr %7, align 4
  br label %47

13:                                               ; preds = %2
  %14 = load ptr, ptr %4, align 8, !tbaa !17
  %15 = call ptr @av_stristr(ptr noundef %14, ptr noundef @.str.108)
  %16 = icmp ne ptr %15, null
  br i1 %16, label %21, label %17

17:                                               ; preds = %13
  %18 = load ptr, ptr %4, align 8, !tbaa !17
  %19 = call ptr @av_stristr(ptr noundef %18, ptr noundef @.str.109)
  %20 = icmp ne ptr %19, null
  br i1 %20, label %21, label %24

21:                                               ; preds = %17, %13
  %22 = load ptr, ptr %3, align 8, !tbaa !21
  %23 = getelementptr inbounds nuw %struct.HTTPContext, ptr %22, i32 0, i32 60
  store i64 -1, ptr %23, align 8, !tbaa !58
  store i32 1, ptr %7, align 4
  br label %47

24:                                               ; preds = %17
  %25 = load ptr, ptr %4, align 8, !tbaa !17
  %26 = call ptr @av_stristr(ptr noundef %25, ptr noundef @.str.110)
  store ptr %26, ptr %5, align 8, !tbaa !17
  store i32 9, ptr %6, align 4, !tbaa !34
  %27 = load ptr, ptr %5, align 8, !tbaa !17
  %28 = icmp ne ptr %27, null
  br i1 %28, label %32, label %29

29:                                               ; preds = %24
  %30 = load ptr, ptr %4, align 8, !tbaa !17
  %31 = call ptr @av_stristr(ptr noundef %30, ptr noundef @.str.111)
  store ptr %31, ptr %5, align 8, !tbaa !17
  store i32 8, ptr %6, align 4, !tbaa !34
  br label %32

32:                                               ; preds = %29, %24
  %33 = load ptr, ptr %5, align 8, !tbaa !17
  %34 = icmp ne ptr %33, null
  br i1 %34, label %35, label %46

35:                                               ; preds = %32
  %36 = call i64 @time(ptr noundef null) #11
  %37 = load ptr, ptr %4, align 8, !tbaa !17
  %38 = load i32, ptr %6, align 4, !tbaa !34
  %39 = sext i32 %38 to i64
  %40 = getelementptr inbounds i8, ptr %37, i64 %39
  %41 = call i32 @atoi(ptr noundef %40) #12
  %42 = sext i32 %41 to i64
  %43 = add nsw i64 %36, %42
  %44 = load ptr, ptr %3, align 8, !tbaa !21
  %45 = getelementptr inbounds nuw %struct.HTTPContext, ptr %44, i32 0, i32 60
  store i64 %43, ptr %45, align 8, !tbaa !58
  br label %46

46:                                               ; preds = %35, %32
  store i32 0, ptr %7, align 4
  br label %47

47:                                               ; preds = %46, %21, %12
  call void @llvm.lifetime.end.p0(i64 4, ptr %6) #11
  call void @llvm.lifetime.end.p0(i64 8, ptr %5) #11
  %48 = load i32, ptr %7, align 4
  switch i32 %48, label %50 [
    i32 0, label %49
    i32 1, label %49
  ]

49:                                               ; preds = %47, %47
  ret void

50:                                               ; preds = %47
  unreachable
}