; Function Attrs: nounwind uwtable
define internal fastcc void @parse_cache_control(ptr noundef captures(none) %0, ptr noundef %1) unnamed_addr #2 {
  %3 = getelementptr inbounds nuw i8, ptr %0, i64 10408
  %4 = load i64, ptr %3, align 8, !tbaa !90
  %.not = icmp eq i64 %4, 0
  br i1 %.not, label %5, label %19

5:                                                ; preds = %2
  %6 = tail call ptr @av_stristr(ptr noundef %1, ptr noundef nonnull @.str.108) #15
  %.not12 = icmp eq ptr %6, null
  br i1 %.not12, label %7, label %.sink.split

7:                                                ; preds = %5
  %8 = tail call ptr @av_stristr(ptr noundef %1, ptr noundef nonnull @.str.109) #15
  %.not13 = icmp eq ptr %8, null
  br i1 %.not13, label %9, label %.sink.split

9:                                                ; preds = %7
  %10 = tail call ptr @av_stristr(ptr noundef %1, ptr noundef nonnull @.str.110) #15
  %.not14 = icmp eq ptr %10, null
  br i1 %.not14, label %11, label %.thread

11:                                               ; preds = %9
  %12 = tail call ptr @av_stristr(ptr noundef %1, ptr noundef nonnull @.str.111) #15
  %13 = icmp eq ptr %12, null
  br i1 %13, label %19, label %.thread

.thread:                                          ; preds = %9, %11
  %.018 = phi i64 [ 8, %11 ], [ 9, %9 ]
  %14 = tail call i64 @time(ptr noundef null) #15
  %15 = getelementptr inbounds nuw i8, ptr %1, i64 %.018
  %16 = tail call i64 @strtol(ptr noundef nonnull captures(none) %15, ptr noundef null, i32 noundef 10) #15
  %sext = shl i64 %16, 32
  %17 = ashr exact i64 %sext, 32
  %18 = add nsw i64 %17, %14
  br label %.sink.split

.sink.split:                                      ; preds = %5, %7, %.thread
  %.sink = phi i64 [ %18, %.thread ], [ -1, %7 ], [ -1, %5 ]
  store i64 %.sink, ptr %3, align 8, !tbaa !90
  br label %19

19:                                               ; preds = %.sink.split, %11, %2
  ret void
}